target datalayout = "e-m:e-p270:32:32-p271:32:32-p272:64:64-i64:64-i128:128-f80:128-n8:16:32:64-S128"
target triple = "x86_64-pc-linux-gnu"

%struct.lv_color_t = type { i8, i8, i8 }

; Function Attrs: nounwind uwtable
define i24 @lv_color_make(i8 noundef zeroext %0, i8 noundef zeroext %1, i8 noundef zeroext %2) #0 {
  %4 = alloca %struct.lv_color_t, align 1
  %5 = alloca i8, align 1
  %6 = alloca i8, align 1
  %7 = alloca i8, align 1
  %8 = alloca i24, align 4
  store i8 %0, ptr %5, align 1, !tbaa !7
  store i8 %1, ptr %6, align 1, !tbaa !7
  store i8 %2, ptr %7, align 1, !tbaa !7
  %9 = load i8, ptr %5, align 1, !tbaa !7
  %10 = getelementptr inbounds nuw %struct.lv_color_t, ptr %4, i32 0, i32 2
  store i8 %9, ptr %10, align 1, !tbaa !11
  %11 = load i8, ptr %6, align 1, !tbaa !7
  %12 = getelementptr inbounds nuw %struct.lv_color_t, ptr %4, i32 0, i32 1
  store i8 %11, ptr %12, align 1, !tbaa !15
  %13 = load i8, ptr %7, align 1, !tbaa !7
  %14 = getelementptr inbounds nuw %struct.lv_color_t, ptr %4, i32 0, i32 0
  store i8 %13, ptr %14, align 1, !tbaa !17
  call void @llvm.memcpy.p0.p0.i64(ptr align 4 %8, ptr align 1 %4, i64 3, i1 false)
  %15 = load i24, ptr %8, align 4
  ret i24 %15
}

; Function Attrs: nounwind uwtable
define i24 @lv_color_black() #0 {
  %1 = alloca %struct.lv_color_t, align 1
  %2 = alloca i24, align 4
  %3 = call i24 @lv_color_make(i8 noundef zeroext 0, i8 noundef zeroext 0, i8 noundef zeroext 0)
  store i24 %3, ptr %1, align 1
  call void @llvm.memcpy.p0.p0.i64(ptr align 4 %2, ptr align 1 %1, i64 3, i1 false)
  %4 = load i24, ptr %2, align 4
  ret i24 %4
}

; Function Attrs: nounwind uwtable
define i24 @lv_color_white() #0 {
  %1 = alloca %struct.lv_color_t, align 1
  %2 = alloca i24, align 4
  %3 = call i24 @lv_color_make(i8 noundef zeroext -1, i8 noundef zeroext -1, i8 noundef zeroext -1)
  store i24 %3, ptr %1, align 1
  call void @llvm.memcpy.p0.p0.i64(ptr align 4 %2, ptr align 1 %1, i64 3, i1 false)
  %4 = load i24, ptr %2, align 4
  ret i24 %4
}

; Function Attrs: nounwind uwtable
define i24 @lv_color_darken(i24 %0, i8 noundef zeroext %1) #0 {
  %3 = alloca %struct.lv_color_t, align 1
  %4 = alloca %struct.lv_color_t, align 1
  %5 = alloca i8, align 1
  %6 = alloca %struct.lv_color_t, align 1
  %7 = alloca i24, align 4
  %8 = alloca i24, align 4
  %9 = alloca i24, align 4
  store i24 %0, ptr %4, align 1
  store i8 %1, ptr %5, align 1, !tbaa !7
  %10 = call i24 @lv_color_black()
  store i24 %10, ptr %6, align 1
  %11 = load i8, ptr %5, align 1, !tbaa !7
  call void @llvm.memcpy.p0.p0.i64(ptr align 4 %7, ptr align 1 %6, i64 3, i1 false)
  %12 = load i24, ptr %7, align 4
  call void @llvm.memcpy.p0.p0.i64(ptr align 4 %8, ptr align 1 %4, i64 3, i1 false)
  %13 = load i24, ptr %8, align 4
  %14 = call i24 @lv_color_mix(i24 %12, i24 %13, i8 noundef zeroext %11)
  store i24 %14, ptr %3, align 1
  call void @llvm.memcpy.p0.p0.i64(ptr align 4 %9, ptr align 1 %3, i64 3, i1 false)
  %15 = load i24, ptr %9, align 4
  ret i24 %15
}

; Function Attrs: nounwind uwtable
define i24 @lv_color_lighten(i24 %0, i8 noundef zeroext %1) #0 {
  %3 = alloca %struct.lv_color_t, align 1
  %4 = alloca %struct.lv_color_t, align 1
  %5 = alloca i8, align 1
  %6 = alloca %struct.lv_color_t, align 1
  %7 = alloca i24, align 4
  %8 = alloca i24, align 4
  %9 = alloca i24, align 4
  store i24 %0, ptr %4, align 1
  store i8 %1, ptr %5, align 1, !tbaa !7
  %10 = call i24 @lv_color_white()
  store i24 %10, ptr %6, align 1
  %11 = load i8, ptr %5, align 1, !tbaa !7
  call void @llvm.memcpy.p0.p0.i64(ptr align 4 %7, ptr align 1 %6, i64 3, i1 false)
  %12 = load i24, ptr %7, align 4
  call void @llvm.memcpy.p0.p0.i64(ptr align 4 %8, ptr align 1 %4, i64 3, i1 false)
  %13 = load i24, ptr %8, align 4
  %14 = call i24 @lv_color_mix(i24 %12, i24 %13, i8 noundef zeroext %11)
  store i24 %14, ptr %3, align 1
  call void @llvm.memcpy.p0.p0.i64(ptr align 4 %9, ptr align 1 %3, i64 3, i1 false)
  %15 = load i24, ptr %9, align 4
  ret i24 %15
}

; Function Attrs: nounwind uwtable
define internal i24 @lv_color_filter_shade_cb(ptr noundef %0, i24 %1, i8 noundef zeroext %2) #0 {
  %4 = alloca %struct.lv_color_t, align 1
  %5 = alloca %struct.lv_color_t, align 1
  %6 = alloca ptr, align 8
  %7 = alloca i8, align 1
  %8 = alloca i24, align 4
  %9 = alloca i24, align 4
  %10 = alloca i24, align 4
  store i24 %1, ptr %5, align 1
  store ptr %0, ptr %6, align 8, !tbaa !3
  store i8 %2, ptr %7, align 1, !tbaa !7
  %11 = load i8, ptr %7, align 1, !tbaa !7
  %12 = zext i8 %11 to i32
  %13 = icmp eq i32 %12, 127
  br i1 %13, label %14, label %15

14:                                               ; preds = %3
  call void @llvm.memcpy.p0.p0.i64(ptr align 1 %4, ptr align 1 %5, i64 3, i1 false), !tbaa.struct !8
  br label %35

15:                                               ; preds = %3
  %16 = load i8, ptr %7, align 1, !tbaa !7
  %17 = zext i8 %16 to i32
  %18 = icmp slt i32 %17, 127
  br i1 %18, label %19, label %27

19:                                               ; preds = %15
  %20 = load i8, ptr %7, align 1, !tbaa !7
  %21 = zext i8 %20 to i32
  %22 = sub nsw i32 127, %21
  %23 = mul nsw i32 %22, 2
  %24 = trunc i32 %23 to i8
  call void @llvm.memcpy.p0.p0.i64(ptr align 4 %8, ptr align 1 %5, i64 3, i1 false)
  %25 = load i24, ptr %8, align 4
  %26 = call i24 @lv_color_lighten(i24 %25, i8 noundef zeroext %24)
  store i24 %26, ptr %4, align 1
  br label %35

27:                                               ; preds = %15
  %28 = load i8, ptr %7, align 1, !tbaa !7
  %29 = zext i8 %28 to i32
  %30 = sub nsw i32 %29, 16129
  %31 = mul nsw i32 %30, 2
  %32 = trunc i32 %31 to i8
  call void @llvm.memcpy.p0.p0.i64(ptr align 4 %9, ptr align 1 %5, i64 3, i1 false)
  %33 = load i24, ptr %9, align 4
  %34 = call i24 @lv_color_darken(i24 %33, i8 noundef zeroext %32)
  store i24 %34, ptr %4, align 1
  br label %35

35:                                               ; preds = %27, %19, %14
  call void @llvm.memcpy.p0.p0.i64(ptr align 4 %10, ptr align 1 %4, i64 3, i1 false)
  %36 = load i24, ptr %10, align 4
  ret i24 %36
}