; Function Attrs: nounwind uwtable
define internal i24 @lv_color_filter_shade_cb(ptr nocapture readnone %0, i24 %1, i8 noundef zeroext %2) #0 {
  %4 = icmp eq i8 %2, 127
  br i1 %4, label %15, label %5

5:                                                ; preds = %3
  %6 = icmp ult i8 %2, 127
  br i1 %6, label %7, label %11

7:                                                ; preds = %5
  %8 = xor i8 %2, -1
  %9 = shl i8 %8, 1
  %10 = tail call i24 @lv_color_mix(i24 -1, i24 %1, i8 noundef zeroext %9) #5
  br label %15

11:                                               ; preds = %5
  %12 = shl i8 %2, 1
  %13 = add i8 %12, -2
  %14 = tail call i24 @lv_color_mix(i24 0, i24 %1, i8 noundef zeroext %13) #5
  br label %15

15:                                               ; preds = %3, %11, %7
  %.sroa.010.0 = phi i24 [ %10, %7 ], [ %14, %11 ], [ %1, %3 ]
  ret i24 %.sroa.010.0
}